
cls.o:     file format elf64-x86-64


Disassembly of section .group:

0000000000000000 <.group>:
   0:	01 00                	add    %eax,(%rax)
   2:	00 00                	add    %al,(%rax)
   4:	07                   	(bad)  
   5:	00 00                	add    %al,(%rax)
   7:	00 08                	add    %cl,(%rax)
   9:	00 00                	add    %al,(%rax)
	...

Disassembly of section .group:

0000000000000000 <.group>:
   0:	01 00                	add    %eax,(%rax)
   2:	00 00                	add    %al,(%rax)
   4:	09 00                	or     %eax,(%rax)
	...

Disassembly of section .text:

0000000000000000 <_Z3barv>:
   0:	55                   	push   %rbp
   1:	48 89 e5             	mov    %rsp,%rbp
   4:	e8 00 00 00 00       	call   9 <_Z3barv+0x9>
			5: R_X86_64_PLT32	_ZN1A11func_staticEv-0x4
   9:	5d                   	pop    %rbp
   a:	c3                   	ret    

000000000000000b <_Z3foov>:
   b:	55                   	push   %rbp
   c:	48 89 e5             	mov    %rsp,%rbp
   f:	48 83 ec 10          	sub    $0x10,%rsp
  13:	64 48 8b 04 25 28 00 	mov    %fs:0x28,%rax
  1a:	00 00 
  1c:	48 89 45 f8          	mov    %rax,-0x8(%rbp)
  20:	31 c0                	xor    %eax,%eax
  22:	c7 45 f4 0a 00 00 00 	movl   $0xa,-0xc(%rbp)
  29:	48 8d 45 f4          	lea    -0xc(%rbp),%rax
  2d:	48 89 c7             	mov    %rax,%rdi
  30:	e8 00 00 00 00       	call   35 <_Z3foov+0x2a>
			31: R_X86_64_PLT32	_ZN1A4funcEv-0x4
  35:	48 8b 55 f8          	mov    -0x8(%rbp),%rdx
  39:	64 48 2b 14 25 28 00 	sub    %fs:0x28,%rdx
  40:	00 00 
  42:	74 05                	je     49 <_Z3foov+0x3e>
  44:	e8 00 00 00 00       	call   49 <_Z3foov+0x3e>
			45: R_X86_64_PLT32	__stack_chk_fail-0x4
  49:	c9                   	leave  
  4a:	c3                   	ret    

Disassembly of section .text._ZN1A11func_staticEv:

0000000000000000 <_ZN1A11func_staticEv>:
   0:	55                   	push   %rbp
   1:	48 89 e5             	mov    %rsp,%rbp
   4:	8b 05 00 00 00 00    	mov    0x0(%rip),%eax        # a <_ZN1A11func_staticEv+0xa>
			6: R_X86_64_PC32	_ZN1A1iE-0x4
   a:	5d                   	pop    %rbp
   b:	c3                   	ret    

Disassembly of section .text._ZN1A4funcEv:

0000000000000000 <_ZN1A4funcEv>:
   0:	55                   	push   %rbp
   1:	48 89 e5             	mov    %rsp,%rbp
   4:	48 89 7d f8          	mov    %rdi,-0x8(%rbp)
   8:	48 8b 45 f8          	mov    -0x8(%rbp),%rax
   c:	8b 00                	mov    (%rax),%eax
   e:	5d                   	pop    %rbp
   f:	c3                   	ret    
